; Function Attrs: mustprogress uwtable
define noundef signext i8 @_ZNK6icu_7516LocaleKeyFactory10handlesKeyERKNS_13ICUServiceKeyER10UErrorCode(ptr noundef nonnull align 8 dereferenceable(76) %this, ptr noundef nonnull align 8 dereferenceable(72) %key, ptr noundef nonnull align 4 dereferenceable(4) %status) unnamed_addr #1 align 2 personality ptr @__gxx_personality_v0 {
entry:
  %id = alloca %"class.icu_75::UnicodeString", align 8
  %vtable = load ptr, ptr %this, align 8
  %vfn = getelementptr inbounds i8, ptr %vtable, i64 64
  %0 = load ptr, ptr %vfn, align 8
  %call = tail call noundef ptr %0(ptr noundef nonnull align 8 dereferenceable(76) %this, ptr noundef nonnull align 4 dereferenceable(4) %status)
  %tobool.not = icmp eq ptr %call, null
  br i1 %tobool.not, label %return, label %if.then

if.then:                                          ; preds = %entry
  store ptr getelementptr inbounds ({ [13 x ptr] }, ptr @_ZTVN6icu_7513UnicodeStringE, i64 0, i32 0, i64 2), ptr %id, align 8
  %fUnion2.i = getelementptr inbounds i8, ptr %id, i64 8
  store i16 2, ptr %fUnion2.i, align 8
  %vtable2 = load ptr, ptr %key, align 8
  %vfn3 = getelementptr inbounds i8, ptr %vtable2, i64 40
  %1 = load ptr, ptr %vfn3, align 8
  %call4 = invoke noundef nonnull align 8 dereferenceable(64) ptr %1(ptr noundef nonnull align 8 dereferenceable(72) %key, ptr noundef nonnull align 8 dereferenceable(64) %id)
          to label %invoke.cont unwind label %lpad

invoke.cont:                                      ; preds = %if.then
  %2 = load ptr, ptr %call, align 8
  %call.i2 = invoke noundef ptr @uhash_get_75(ptr noundef %2, ptr noundef nonnull %id)
          to label %invoke.cont5 unwind label %lpad

invoke.cont5:                                     ; preds = %invoke.cont
  %cmp = icmp ne ptr %call.i2, null
  %conv = zext i1 %cmp to i8
  call void @_ZN6icu_7513UnicodeStringD1Ev(ptr noundef nonnull align 8 dereferenceable(64) %id) #10
  br label %return

lpad:                                             ; preds = %invoke.cont, %if.then
  %3 = landingpad { ptr, i32 }
          cleanup
  call void @_ZN6icu_7513UnicodeStringD1Ev(ptr noundef nonnull align 8 dereferenceable(64) %id) #10
  resume { ptr, i32 } %3

return:                                           ; preds = %entry, %invoke.cont5
  %retval.0 = phi i8 [ %conv, %invoke.cont5 ], [ 0, %entry ]
  ret i8 %retval.0
}